; Function Attrs: mustprogress nounwind uwtable
define internal void @"_ZN5folly6detail8function5call_IZNS_20IOThreadPoolExecutor9threadRunESt10shared_ptrINS_18ThreadPoolExecutor6ThreadEEE3$_0Lb1ELb0EvJEEET2_DpT3_RNS1_4DataE"(ptr noundef nonnull readonly align 16 captures(none) dereferenceable(48) %0) #0 personality ptr @__gxx_personality_v0 {
  %2 = load ptr, ptr %0, align 16, !tbaa !18
  %3 = getelementptr inbounds nuw i8, ptr %2, i64 40
  %4 = load atomic i32, ptr %3 acquire, align 4
  switch i32 %4, label %10 [
    i32 0, label %5
    i32 4, label %"_ZZN5folly20IOThreadPoolExecutor9threadRunESt10shared_ptrINS_18ThreadPoolExecutor6ThreadEEENK3$_0clEv.exit"
  ]

5:                                                ; preds = %1
  %6 = cmpxchg ptr %3, i32 0, i32 1 release monotonic, align 4
  %7 = extractvalue { i32, i1 } %6, 1
  %8 = extractvalue { i32, i1 } %6, 0
  %9 = icmp eq i32 %8, 4
  %or.cond.i.i = select i1 %7, i1 true, i1 %9
  br i1 %or.cond.i.i, label %"_ZZN5folly20IOThreadPoolExecutor9threadRunESt10shared_ptrINS_18ThreadPoolExecutor6ThreadEEENK3$_0clEv.exit", label %10

10:                                               ; preds = %5, %1
  store atomic i32 3, ptr %3 release, align 4
  %11 = invoke noundef i32 @_ZN5folly6detail13futexWakeImplEPKSt6atomicIjEij(ptr noundef nonnull align 4 dereferenceable(4) %3, i32 noundef 1, i32 noundef -1)
          to label %"_ZZN5folly20IOThreadPoolExecutor9threadRunESt10shared_ptrINS_18ThreadPoolExecutor6ThreadEEENK3$_0clEv.exit" unwind label %12

12:                                               ; preds = %10
  %13 = landingpad { ptr, i32 }
          catch ptr null
  %14 = extractvalue { ptr, i32 } %13, 0
  tail call void @__clang_call_terminate(ptr %14) #36
  unreachable

"_ZZN5folly20IOThreadPoolExecutor9threadRunESt10shared_ptrINS_18ThreadPoolExecutor6ThreadEEENK3$_0clEv.exit": ; preds = %1, %5, %10
  ret void
}